target datalayout = "e-m:e-p270:32:32-p271:32:32-p272:64:64-i64:64-i128:128-f80:128-n8:16:32:64-S128"
target triple = "x86_64-pc-linux-gnu"

%struct.anon = type { i64, [32 x i8], i32, i32 }
%class.LibRaw = type { ptr, %struct.libraw_data_t, ptr, %struct.libraw_internal_data_t, [2048 x %struct.decode], ptr, ptr, [10 x %struct.tiff_ifd_t], %class.libraw_memmgr, %struct.libraw_callbacks_t, { i64, i64 }, { i64, i64 }, { i64, i64 }, ptr, ptr, ptr, i64, ptr, ptr, ptr, ptr }
%struct.libraw_data_t = type { ptr, %struct.libraw_image_sizes_t, %struct.libraw_iparams_t, %struct.libraw_lensinfo_t, %struct.libraw_makernotes_t, %struct.libraw_shootinginfo_t, %struct.libraw_output_params_t, %struct.libraw_raw_unpack_params_t, i32, i32, %struct.libraw_colordata_t, %struct.libraw_imgother_t, %struct.libraw_thumbnail_t, %struct.libraw_thumbnail_list_t, %struct.libraw_rawdata_t, ptr }
%struct.libraw_image_sizes_t = type { i16, i16, i16, i16, i16, i16, i16, i16, i32, double, i32, [8 x [4 x i32]], i16, [2 x %struct.libraw_raw_inset_crop_t] }
%struct.libraw_raw_inset_crop_t = type { i16, i16, i16, i16 }
%struct.libraw_iparams_t = type { [4 x i8], [64 x i8], [64 x i8], [64 x i8], [64 x i8], [64 x i8], i32, i32, i32, i32, i32, i32, [6 x [6 x i8]], [6 x [6 x i8]], [5 x i8], i32, ptr }
%struct.libraw_lensinfo_t = type { float, float, float, float, float, [128 x i8], [128 x i8], [128 x i8], [128 x i8], i16, %struct.libraw_nikonlens_t, %struct.libraw_dnglens_t, %struct.libraw_makernotes_lens_t }
%struct.libraw_nikonlens_t = type { float, i8, i8, i8, i8 }
%struct.libraw_dnglens_t = type { float, float, float, float }
%struct.libraw_makernotes_lens_t = type { i64, [128 x i8], i16, i16, i64, i16, i16, [64 x i8], i16, [16 x i8], [16 x i8], float, float, float, float, float, float, float, float, float, float, float, float, float, float, float, i64, [128 x i8], i64, [128 x i8], i64, [128 x i8], i16, float }
%struct.libraw_makernotes_t = type { %struct.libraw_canon_makernotes_t, %struct.libraw_nikon_makernotes_t, %struct.libraw_hasselblad_makernotes_t, %struct.libraw_fuji_info_t, %struct.libraw_olympus_makernotes_t, %struct.libraw_sony_info_t, %struct.libraw_kodak_makernotes_t, %struct.libraw_panasonic_makernotes_t, %struct.libraw_pentax_makernotes_t, %struct.libraw_p1_makernotes_t, %struct.libraw_ricoh_makernotes_t, %struct.libraw_samsung_makernotes_t, %struct.libraw_metadata_common_t }
%struct.libraw_canon_makernotes_t = type { i32, i32, i32, i32, [4 x i32], i32, [4 x i32], i16, i16, i8, i16, i16, i16, i16, i16, i16, i16, i16, i16, i16, i16, i16, i16, i32, float, i16, i16, i16, i32, i16, i32, i32, i16, i32, %struct.libraw_area_t, %struct.libraw_area_t, %struct.libraw_area_t, %struct.libraw_area_t, %struct.libraw_area_t, [2 x i16] }
%struct.libraw_area_t = type { i16, i16, i16, i16 }
%struct.libraw_nikon_makernotes_t = type { double, i16, i16, [7 x i8], i8, i8, [13 x i8], [20 x i8], [4 x i8], [4 x i8], [4 x i8], i8, i8, i8, i8, i8, [2 x i8], i8, i8, i8, i8, i8, [4 x i8], [4 x i8], i8, i16, i32, i32, i32, i32, [4 x double], i8, i8, i8, i32, i32, i32, i8, [4 x i16], i16, %struct.libraw_sensor_highspeed_crop_t, i16, i16, i16, i32, [20 x i8], [20 x i8], i32, i16, double, double, double }
%struct.libraw_sensor_highspeed_crop_t = type { i16, i16, i16, i16 }
%struct.libraw_hasselblad_makernotes_t = type { i32, double, [8 x i8], [64 x i8], [64 x i8], i32, i32, i32, i32, [32 x i8], [64 x i8], i32, [2 x i32], [2 x i32], [4 x [3 x double]] }
%struct.libraw_fuji_info_t = type { float, i16, i16, i16, i16, i16, i16, i16, i16, [33 x i8], [33 x i8], float, i16, i16, [2 x i16], i16, i32, i32, i16, [3 x i16], i16, i16, i16, i16, i16, i32, i16, [13 x i8], [5 x i8], [5 x i8], i32, i16, i32, i16, [9 x i16], [32 x i32], i32, i32, i32, [2 x float], i32 }
%struct.libraw_olympus_makernotes_t = type { [6 x i8], i16, [2 x i32], [5 x i16], i16, [2 x i16], i16, i16, [64 x i32], [5 x double], i16, i8, [3 x i16], [3 x i32], i16, i16, i16, i16, double, [4 x i16], [2 x i32], i8, i32, i16, i16 }
%struct.libraw_sony_info_t = type { i16, i8, i8, i32, i8, i32, i8, i8, i16, [2 x i16], i8, i8, i16, [10 x i8], i8, i8, [4 x i16], i16, i8, i8, i8, i16, i32, i16, [2 x i16], i16, i16, i16, i16, i16, i16, i16, i32, float, i16, i32, i32, i16, [20 x i8], i32, i16, i32, i8, i8, i16, i16, i16, i16, i16, i16, i16, i16, i16, i32, i16, [16 x i8], float }
%struct.libraw_kodak_makernotes_t = type { i16, i16, i16, i16, i16, i16, [3 x [3 x float]], [3 x [3 x float]], [3 x [3 x float]], [3 x [3 x float]], [3 x [3 x float]], [3 x [3 x float]], i16, i16, i16, i16, float, float }
%struct.libraw_panasonic_makernotes_t = type { i16, i16, [8 x float], i32, float, [3 x i32], i16, i16, i32, i32 }
%struct.libraw_pentax_makernotes_t = type { [4 x i8], [2 x i16], [2 x i16], i16, i32, i32, i16, i16, i8, i8, i16 }
%struct.libraw_p1_makernotes_t = type { [64 x i8], [64 x i8], [256 x i8], [64 x i8] }
%struct.libraw_ricoh_makernotes_t = type { i16, [2 x i32], [2 x i32], i16, i32, i32, i32, i32, i16, i16, i16, i16, i16, i16, double, double }
%struct.libraw_samsung_makernotes_t = type { [4 x i32], [4 x i32], [2 x i32], [11 x i32], double, i32, [32 x i8] }
%struct.libraw_metadata_common_t = type { float, float, float, float, float, float, float, float, float, float, float, float, float, float, float, float, i16, [128 x i8], float, [4 x %struct.libraw_afinfo_item_t], i32 }
%struct.libraw_afinfo_item_t = type { i32, i16, i32, i32, ptr }
%struct.libraw_shootinginfo_t = type { i16, i16, i16, i16, i16, i16, i16, [64 x i8], [64 x i8] }
%struct.libraw_output_params_t = type { [4 x i32], [4 x i32], [4 x double], [6 x double], [4 x float], float, float, i32, i32, i32, i32, i32, i32, i32, ptr, ptr, ptr, ptr, i32, i32, i32, i32, i32, i32, [4 x i32], i32, i32, float, float, i32, i32, i32, i32, i32, i32, i32, i32, float, float, i32, i32 }
%struct.libraw_raw_unpack_params_t = type { i32, i32, i32, i32, i32, i32, i32, float, [5 x i8], ptr }
%struct.libraw_colordata_t = type { [65536 x i16], [4104 x i32], i32, i32, i32, [4 x i64], float, float, [8 x [8 x i16]], [4 x float], [4 x float], [3 x [4 x float]], [3 x [4 x float]], [3 x [4 x float]], [4 x [3 x float]], %struct.ph1_t, float, float, [64 x i8], [64 x i8], [64 x i8], [64 x i8], [17 x i8], [64 x i8], ptr, i32, [8 x i32], [2 x %struct.libraw_dng_color_t], %struct.libraw_dng_levels_t, [256 x [4 x i32]], [64 x [5 x float]], i32, [2 x %struct.libraw_P1_color_t], i32, i32 }
%struct.ph1_t = type { i32, i32, i32, i32, i32, i32, i32, i32, float }
%struct.libraw_dng_color_t = type { i32, i16, [4 x [4 x float]], [4 x [3 x float]], [3 x [4 x float]] }
%struct.libraw_dng_levels_t = type { i32, [4104 x i32], i32, [4104 x float], float, [4 x i32], [4 x i16], [4 x float], i32, [4 x float], [4 x float], float, float }
%struct.libraw_P1_color_t = type { [9 x float] }
%struct.libraw_imgother_t = type { float, float, float, float, i64, i32, [32 x i32], %struct.libraw_gps_info_t, [512 x i8], [64 x i8], [4 x float] }
%struct.libraw_gps_info_t = type { [3 x float], [3 x float], [3 x float], float, i8, i8, i8, i8, i8 }
%struct.libraw_thumbnail_t = type { i32, i16, i16, i32, i32, ptr }
%struct.libraw_thumbnail_list_t = type { i32, [8 x %struct.libraw_thumbnail_item_t] }
%struct.libraw_thumbnail_item_t = type { i32, i16, i16, i16, i32, i32, i64 }
%struct.libraw_rawdata_t = type { ptr, ptr, ptr, ptr, ptr, ptr, ptr, ptr, ptr, %struct.libraw_iparams_t, %struct.libraw_image_sizes_t, %struct.libraw_internal_output_params_t, %struct.libraw_colordata_t }
%struct.libraw_internal_output_params_t = type { i32, i32, i32, i16, i16 }
%struct.libraw_internal_data_t = type { %struct.internal_data_t, %struct.libraw_internal_output_params_t, %struct.output_data_t, %struct.identify_data_t, %struct.unpacker_data_t }
%struct.internal_data_t = type { ptr, ptr, i32, ptr, i64, i64, [4 x i32] }
%struct.output_data_t = type { ptr, ptr }
%struct.identify_data_t = type { i32, i64, i64, i32, i32, i32 }
%struct.unpacker_data_t = type { i16, [4 x i16], [3 x i16], i32, i64, i64, i64, i64, i64, i64, i32, i32, i32, i32, i32, i32, i32, i32, i32, i32, i32, i32, i32, i32, i32, i32, i32, i64, i32, i32, i32, i32, i32, i32, i32, i32, i32, %struct.pana8_tags_t, [16 x %struct.crx_data_header_t], i32, i32, i16, i16, i32, i32, i32, i32, i32, i32, i32, [20 x i32], i16 }
%struct.pana8_tags_t = type { [6 x i32], [6 x i16], i16, [4 x i16], [17 x i16], [17 x i16], [17 x i16], i16, i16, [5 x i64], [5 x i16], [5 x i32], [5 x i16], [5 x i16] }
%struct.crx_data_header_t = type { i32, i32, i32, i32, i32, i32, i32, i32, i32, i32, i32, i32, i32, i32, i32, i64, i32, ptr, i32, i32, i32, ptr, i32, ptr }
%struct.decode = type { [2 x ptr], i32 }
%struct.tiff_ifd_t = type { i32, i32, i32, i32, i32, i32, i32, i32, i32, i32, i32, i32, i32, i32, i32, ptr, i32, ptr, i32, i32, i32, i32, i32, i32, i32, float, i64, i64, i32, [2 x %struct.libraw_dng_color_t], %struct.libraw_dng_levels_t, i32 }
%class.libraw_memmgr = type <{ ptr, i32, [4 x i8] }>
%struct.libraw_callbacks_t = type { ptr, ptr, ptr, ptr, ptr, ptr, ptr, ptr, ptr, ptr, ptr, ptr, ptr, ptr, ptr, ptr, ptr }

; Function Attrs: mustprogress nounwind uwtable
define void @_ZN6LibRaw19setPhaseOneFeaturesEy(ptr noundef nonnull align 8 dereferenceable(767680) %0, i64 noundef %1) #0 align 2 {
  %3 = alloca ptr, align 8
  %4 = alloca i64, align 8
  %5 = alloca i16, align 2
  store ptr %0, ptr %3, align 8, !tbaa !6
  store i64 %1, ptr %4, align 8, !tbaa !11
  %6 = load ptr, ptr %3, align 8
  call void @llvm.lifetime.start.p0(i64 2, ptr %5) #3
  %7 = load i64, ptr %4, align 8, !tbaa !11
  %8 = getelementptr inbounds nuw %class.LibRaw, ptr %6, i32 0, i32 1
  %9 = getelementptr inbounds nuw %struct.libraw_data_t, ptr %8, i32 0, i32 3
  %10 = getelementptr inbounds nuw %struct.libraw_lensinfo_t, ptr %9, i32 0, i32 12
  %11 = getelementptr inbounds nuw %struct.libraw_makernotes_lens_t, ptr %10, i32 0, i32 4
  store i64 %7, ptr %11, align 8, !tbaa !13
  %12 = load i64, ptr %4, align 8, !tbaa !11
  %13 = icmp ne i64 %12, 0
  br i1 %13, label %14, label %121

14:                                               ; preds = %2
  %15 = getelementptr inbounds nuw %class.LibRaw, ptr %6, i32 0, i32 1
  %16 = getelementptr inbounds nuw %struct.libraw_data_t, ptr %15, i32 0, i32 3
  %17 = getelementptr inbounds nuw %struct.libraw_lensinfo_t, ptr %16, i32 0, i32 12
  %18 = getelementptr inbounds nuw %struct.libraw_makernotes_lens_t, ptr %17, i32 0, i32 7
  %19 = getelementptr inbounds [64 x i8], ptr %18, i64 0, i64 0
  %20 = load i8, ptr %19, align 4, !tbaa !74
  %21 = icmp ne i8 %20, 0
  br i1 %21, label %121, label %22

22:                                               ; preds = %14
  store i16 0, ptr %5, align 2, !tbaa !75
  br label %23

23:                                               ; preds = %117, %22
  %24 = load i16, ptr %5, align 2, !tbaa !75
  %25 = zext i16 %24 to i64
  %26 = icmp ult i64 %25, 138
  br i1 %26, label %27, label %120

27:                                               ; preds = %23
  %28 = load i64, ptr %4, align 8, !tbaa !11
  %29 = load i16, ptr %5, align 2, !tbaa !75
  %30 = zext i16 %29 to i64
  %31 = getelementptr inbounds nuw [138 x %struct.anon], ptr @_ZZN6LibRaw19setPhaseOneFeaturesEyE9p1_unique, i64 0, i64 %30
  %32 = getelementptr inbounds nuw %struct.anon, ptr %31, i32 0, i32 0
  %33 = load i64, ptr %32, align 16, !tbaa !76
  %34 = icmp eq i64 %28, %33
  br i1 %34, label %35, label %116

35:                                               ; preds = %27
  %36 = getelementptr inbounds nuw %class.LibRaw, ptr %6, i32 0, i32 1
  %37 = getelementptr inbounds nuw %struct.libraw_data_t, ptr %36, i32 0, i32 3
  %38 = getelementptr inbounds nuw %struct.libraw_lensinfo_t, ptr %37, i32 0, i32 12
  %39 = getelementptr inbounds nuw %struct.libraw_makernotes_lens_t, ptr %38, i32 0, i32 7
  %40 = getelementptr inbounds [64 x i8], ptr %39, i64 0, i64 0
  %41 = load i16, ptr %5, align 2, !tbaa !75
  %42 = zext i16 %41 to i64
  %43 = getelementptr inbounds nuw [138 x %struct.anon], ptr @_ZZN6LibRaw19setPhaseOneFeaturesEyE9p1_unique, i64 0, i64 %42
  %44 = getelementptr inbounds nuw %struct.anon, ptr %43, i32 0, i32 1
  %45 = getelementptr inbounds [32 x i8], ptr %44, i64 0, i64 0
  %46 = call ptr @strcpy(ptr noundef %40, ptr noundef %45) #3
  %47 = load i16, ptr %5, align 2, !tbaa !75
  %48 = zext i16 %47 to i64
  %49 = getelementptr inbounds nuw [138 x %struct.anon], ptr @_ZZN6LibRaw19setPhaseOneFeaturesEyE9p1_unique, i64 0, i64 %48
  %50 = getelementptr inbounds nuw %struct.anon, ptr %49, i32 0, i32 3
  %51 = load i32, ptr %50, align 4, !tbaa !78
  %52 = trunc i32 %51 to i16
  %53 = getelementptr inbounds nuw %class.LibRaw, ptr %6, i32 0, i32 1
  %54 = getelementptr inbounds nuw %struct.libraw_data_t, ptr %53, i32 0, i32 3
  %55 = getelementptr inbounds nuw %struct.libraw_lensinfo_t, ptr %54, i32 0, i32 12
  %56 = getelementptr inbounds nuw %struct.libraw_makernotes_lens_t, ptr %55, i32 0, i32 5
  store i16 %52, ptr %56, align 8, !tbaa !79
  %57 = load i16, ptr %5, align 2, !tbaa !75
  %58 = zext i16 %57 to i64
  %59 = getelementptr inbounds nuw [138 x %struct.anon], ptr @_ZZN6LibRaw19setPhaseOneFeaturesEyE9p1_unique, i64 0, i64 %58
  %60 = getelementptr inbounds nuw %struct.anon, ptr %59, i32 0, i32 2
  %61 = load i32, ptr %60, align 8, !tbaa !80
  %62 = trunc i32 %61 to i16
  %63 = getelementptr inbounds nuw %class.LibRaw, ptr %6, i32 0, i32 1
  %64 = getelementptr inbounds nuw %struct.libraw_data_t, ptr %63, i32 0, i32 3
  %65 = getelementptr inbounds nuw %struct.libraw_lensinfo_t, ptr %64, i32 0, i32 12
  %66 = getelementptr inbounds nuw %struct.libraw_makernotes_lens_t, ptr %65, i32 0, i32 6
  store i16 %62, ptr %66, align 2, !tbaa !81
  %67 = getelementptr inbounds nuw %class.LibRaw, ptr %6, i32 0, i32 1
  %68 = getelementptr inbounds nuw %struct.libraw_data_t, ptr %67, i32 0, i32 3
  %69 = getelementptr inbounds nuw %struct.libraw_lensinfo_t, ptr %68, i32 0, i32 12
  %70 = getelementptr inbounds nuw %struct.libraw_makernotes_lens_t, ptr %69, i32 0, i32 6
  %71 = load i16, ptr %70, align 2, !tbaa !81
  %72 = zext i16 %71 to i32
  %73 = icmp eq i32 %72, 30
  br i1 %73, label %82, label %74

74:                                               ; preds = %35
  %75 = getelementptr inbounds nuw %class.LibRaw, ptr %6, i32 0, i32 1
  %76 = getelementptr inbounds nuw %struct.libraw_data_t, ptr %75, i32 0, i32 3
  %77 = getelementptr inbounds nuw %struct.libraw_lensinfo_t, ptr %76, i32 0, i32 12
  %78 = getelementptr inbounds nuw %struct.libraw_makernotes_lens_t, ptr %77, i32 0, i32 6
  %79 = load i16, ptr %78, align 2, !tbaa !81
  %80 = zext i16 %79 to i32
  %81 = icmp eq i32 %80, 31
  br i1 %81, label %82, label %96

82:                                               ; preds = %74, %35
  %83 = getelementptr inbounds nuw %class.LibRaw, ptr %6, i32 0, i32 1
  %84 = getelementptr inbounds nuw %struct.libraw_data_t, ptr %83, i32 0, i32 3
  %85 = getelementptr inbounds nuw %struct.libraw_lensinfo_t, ptr %84, i32 0, i32 12
  %86 = getelementptr inbounds nuw %struct.libraw_makernotes_lens_t, ptr %85, i32 0, i32 8
  store i16 1, ptr %86, align 4, !tbaa !82
  %87 = getelementptr inbounds nuw %class.LibRaw, ptr %6, i32 0, i32 1
  %88 = getelementptr inbounds nuw %struct.libraw_data_t, ptr %87, i32 0, i32 3
  %89 = getelementptr inbounds nuw %struct.libraw_lensinfo_t, ptr %88, i32 0, i32 12
  %90 = getelementptr inbounds nuw %struct.libraw_makernotes_lens_t, ptr %89, i32 0, i32 6
  %91 = load i16, ptr %90, align 2, !tbaa !81
  %92 = getelementptr inbounds nuw %class.LibRaw, ptr %6, i32 0, i32 1
  %93 = getelementptr inbounds nuw %struct.libraw_data_t, ptr %92, i32 0, i32 3
  %94 = getelementptr inbounds nuw %struct.libraw_lensinfo_t, ptr %93, i32 0, i32 12
  %95 = getelementptr inbounds nuw %struct.libraw_makernotes_lens_t, ptr %94, i32 0, i32 3
  store i16 %91, ptr %95, align 2, !tbaa !83
  br label %115

96:                                               ; preds = %74
  %97 = getelementptr inbounds nuw %class.LibRaw, ptr %6, i32 0, i32 1
  %98 = getelementptr inbounds nuw %struct.libraw_data_t, ptr %97, i32 0, i32 3
  %99 = getelementptr inbounds nuw %struct.libraw_lensinfo_t, ptr %98, i32 0, i32 12
  %100 = getelementptr inbounds nuw %struct.libraw_makernotes_lens_t, ptr %99, i32 0, i32 6
  %101 = load i16, ptr %100, align 2, !tbaa !81
  %102 = zext i16 %101 to i32
  %103 = icmp eq i32 %102, 29
  br i1 %103, label %104, label %114

104:                                              ; preds = %96
  %105 = getelementptr inbounds nuw %class.LibRaw, ptr %6, i32 0, i32 1
  %106 = getelementptr inbounds nuw %struct.libraw_data_t, ptr %105, i32 0, i32 3
  %107 = getelementptr inbounds nuw %struct.libraw_lensinfo_t, ptr %106, i32 0, i32 12
  %108 = getelementptr inbounds nuw %struct.libraw_makernotes_lens_t, ptr %107, i32 0, i32 6
  %109 = load i16, ptr %108, align 2, !tbaa !81
  %110 = getelementptr inbounds nuw %class.LibRaw, ptr %6, i32 0, i32 1
  %111 = getelementptr inbounds nuw %struct.libraw_data_t, ptr %110, i32 0, i32 3
  %112 = getelementptr inbounds nuw %struct.libraw_lensinfo_t, ptr %111, i32 0, i32 12
  %113 = getelementptr inbounds nuw %struct.libraw_makernotes_lens_t, ptr %112, i32 0, i32 3
  store i16 %109, ptr %113, align 2, !tbaa !83
  br label %114

114:                                              ; preds = %104, %96
  br label %115

115:                                              ; preds = %114, %82
  br label %120

116:                                              ; preds = %27
  br label %117

117:                                              ; preds = %116
  %118 = load i16, ptr %5, align 2, !tbaa !75
  %119 = add i16 %118, 1
  store i16 %119, ptr %5, align 2, !tbaa !75
  br label %23, !llvm.loop !84

120:                                              ; preds = %115, %23
  br label %121

121:                                              ; preds = %120, %14, %2
  call void @llvm.lifetime.end.p0(i64 2, ptr %5) #3
  ret void
}