; Function Attrs: mustprogress nofree nounwind memory(argmem: readwrite) uwtable
define void @_ZN6LibRaw19setPhaseOneFeaturesEy(ptr noundef nonnull align 8 dereferenceable(767680) initializes((1344, 1352)) %0, i64 noundef %1) local_unnamed_addr #0 align 2 {
  %3 = getelementptr inbounds nuw i8, ptr %0, i64 1344
  store i64 %1, ptr %3, align 8, !tbaa !6
  %.not = icmp eq i64 %1, 0
  br i1 %.not, label %.loopexit, label %4

4:                                                ; preds = %2
  %5 = getelementptr inbounds nuw i8, ptr %0, i64 1356
  %6 = load i8, ptr %5, align 4, !tbaa !71
  %.not12 = icmp eq i8 %6, 0
  br i1 %.not12, label %.preheader, label %.loopexit

7:                                                ; preds = %.preheader
  %indvars.iv.next = add nuw nsw i64 %indvars.iv, 1
  %exitcond.not = icmp eq i64 %indvars.iv.next, 138
  br i1 %exitcond.not, label %.loopexit, label %.preheader, !llvm.loop !72

.preheader:                                       ; preds = %4, %7
  %indvars.iv = phi i64 [ %indvars.iv.next, %7 ], [ 0, %4 ]
  %8 = getelementptr inbounds nuw [138 x %struct.anon], ptr @_ZZN6LibRaw19setPhaseOneFeaturesEyE9p1_unique, i64 0, i64 %indvars.iv
  %9 = load i64, ptr %8, align 16, !tbaa !74
  %10 = icmp eq i64 %1, %9
  br i1 %10, label %11, label %7

11:                                               ; preds = %.preheader
  %12 = getelementptr inbounds nuw i8, ptr %8, i64 8
  %13 = tail call ptr @strcpy(ptr noundef nonnull dereferenceable(1) %5, ptr noundef nonnull dereferenceable(1) %12) #2
  %14 = getelementptr inbounds nuw i8, ptr %8, i64 44
  %15 = load i32, ptr %14, align 4, !tbaa !76
  %16 = trunc i32 %15 to i16
  %17 = getelementptr inbounds nuw i8, ptr %0, i64 1352
  store i16 %16, ptr %17, align 8, !tbaa !77
  %18 = getelementptr inbounds nuw i8, ptr %8, i64 40
  %19 = load i32, ptr %18, align 8, !tbaa !78
  %20 = trunc i32 %19 to i16
  %21 = getelementptr inbounds nuw i8, ptr %0, i64 1354
  store i16 %20, ptr %21, align 2, !tbaa !79
  switch i16 %20, label %.loopexit [
    i16 30, label %22
    i16 31, label %22
    i16 29, label %.loopexit.sink.split
  ]

22:                                               ; preds = %11, %11
  %23 = getelementptr inbounds nuw i8, ptr %0, i64 1420
  store i16 1, ptr %23, align 4, !tbaa !80
  br label %.loopexit.sink.split

.loopexit.sink.split:                             ; preds = %11, %22
  %24 = getelementptr inbounds nuw i8, ptr %0, i64 1338
  store i16 %20, ptr %24, align 2, !tbaa !81
  br label %.loopexit

.loopexit:                                        ; preds = %7, %.loopexit.sink.split, %11, %4, %2
  ret void
}